target datalayout = "e-m:e-p270:32:32-p271:32:32-p272:64:64-i64:64-i128:128-f80:128-n8:16:32:64-S128"
target triple = "x86_64-pc-linux-gnu"

%struct.Agdesc_s = type { i8, [3 x i8] }
%struct.userdata_t = type { %struct.agxbuf, %struct.agxbuf, %struct.agxbuf, i8, i32, i32, i8, i8, ptr }
%struct.agxbuf = type { %union.anon }
%union.anon = type { %struct.anon }
%struct.anon = type { ptr, i64, i64, [7 x i8], i8 }
%struct.Agobj_s = type { %struct.Agtag_s, ptr }
%struct.Agtag_s = type { i32, i64 }
%struct.dtlink_s_ = type { ptr, %union.anon.0 }
%union.anon.0 = type { ptr }
%struct.Agraph_s = type { %struct.Agobj_s, %struct.Agdesc_s, %struct.dtlink_s_, %struct.dtlink_s_, ptr, ptr, ptr, ptr, ptr, ptr, ptr, ptr, ptr }

@root = internal global ptr null, align 8
@.str.28 = private unnamed_addr constant [5 x i8] c"name\00", align 1
@.str.52 = private unnamed_addr constant [7 x i8] c"strict\00", align 1
@.str.53 = private unnamed_addr constant [5 x i8] c"true\00", align 1
@defval = internal global ptr @.str.4, align 8

; Function Attrs: nounwind uwtable
define internal void @setGraphAttr(ptr noundef %0, ptr noundef %1, ptr noundef %2, ptr noundef %3) #0 {
  %5 = alloca ptr, align 8
  %6 = alloca ptr, align 8
  %7 = alloca ptr, align 8
  %8 = alloca ptr, align 8
  %9 = alloca ptr, align 8
  store ptr %0, ptr %5, align 8, !tbaa !13
  store ptr %1, ptr %6, align 8, !tbaa !30
  store ptr %2, ptr %7, align 8, !tbaa !30
  store ptr %3, ptr %8, align 8, !tbaa !28
  call void @llvm.lifetime.start.p0(i64 8, ptr %9) #14
  %10 = load ptr, ptr %5, align 8, !tbaa !13
  %11 = load ptr, ptr @root, align 8, !tbaa !13
  %12 = icmp eq ptr %10, %11
  br i1 %12, label %13, label %27

13:                                               ; preds = %4
  %14 = load ptr, ptr %6, align 8, !tbaa !30
  %15 = call i32 @strcmp(ptr noundef %14, ptr noundef @.str.52) #16
  %16 = icmp ne i32 %15, 0
  br i1 %16, label %27, label %17

17:                                               ; preds = %13
  %18 = load ptr, ptr %7, align 8, !tbaa !30
  %19 = call i32 @strcmp(ptr noundef %18, ptr noundef @.str.53) #16
  %20 = icmp ne i32 %19, 0
  br i1 %20, label %27, label %21

21:                                               ; preds = %17
  %22 = load ptr, ptr %5, align 8, !tbaa !13
  %23 = getelementptr inbounds nuw %struct.Agraph_s, ptr %22, i32 0, i32 1
  %24 = load i8, ptr %23, align 8
  %25 = and i8 %24, -3
  %26 = or i8 %25, 2
  store i8 %26, ptr %23, align 8
  br label %69

27:                                               ; preds = %17, %13, %4
  %28 = load ptr, ptr %6, align 8, !tbaa !30
  %29 = call i32 @strcmp(ptr noundef %28, ptr noundef @.str.28) #16
  %30 = icmp eq i32 %29, 0
  br i1 %30, label %31, label %37

31:                                               ; preds = %27
  %32 = load ptr, ptr %8, align 8, !tbaa !28
  %33 = getelementptr inbounds nuw %struct.userdata_t, ptr %32, i32 0, i32 8
  %34 = load ptr, ptr %33, align 8, !tbaa !29
  %35 = load ptr, ptr %5, align 8, !tbaa !13
  %36 = load ptr, ptr %7, align 8, !tbaa !30
  call void @setName(ptr noundef %34, ptr noundef %35, ptr noundef %36)
  br label %68

37:                                               ; preds = %27
  %38 = load ptr, ptr @root, align 8, !tbaa !13
  %39 = load ptr, ptr %6, align 8, !tbaa !30
  %40 = call ptr @agattr(ptr noundef %38, i32 noundef 0, ptr noundef %39, ptr noundef null)
  store ptr %40, ptr %9, align 8, !tbaa !58
  %41 = load ptr, ptr %9, align 8, !tbaa !58
  %42 = icmp ne ptr %41, null
  br i1 %42, label %43, label %48

43:                                               ; preds = %37
  %44 = load ptr, ptr %5, align 8, !tbaa !13
  %45 = load ptr, ptr %9, align 8, !tbaa !58
  %46 = load ptr, ptr %7, align 8, !tbaa !30
  %47 = call i32 @agxset(ptr noundef %44, ptr noundef %45, ptr noundef %46)
  br label %67

48:                                               ; preds = %37
  %49 = load ptr, ptr %5, align 8, !tbaa !13
  %50 = load ptr, ptr @root, align 8, !tbaa !13
  %51 = icmp eq ptr %49, %50
  br i1 %51, label %52, label %57

52:                                               ; preds = %48
  %53 = load ptr, ptr @root, align 8, !tbaa !13
  %54 = load ptr, ptr %6, align 8, !tbaa !30
  %55 = load ptr, ptr %7, align 8, !tbaa !30
  %56 = call ptr @agattr(ptr noundef %53, i32 noundef 0, ptr noundef %54, ptr noundef %55)
  br label %66

57:                                               ; preds = %48
  %58 = load ptr, ptr @root, align 8, !tbaa !13
  %59 = load ptr, ptr %6, align 8, !tbaa !30
  %60 = load ptr, ptr @defval, align 8, !tbaa !30
  %61 = call ptr @agattr(ptr noundef %58, i32 noundef 0, ptr noundef %59, ptr noundef %60)
  store ptr %61, ptr %9, align 8, !tbaa !58
  %62 = load ptr, ptr %5, align 8, !tbaa !13
  %63 = load ptr, ptr %9, align 8, !tbaa !58
  %64 = load ptr, ptr %7, align 8, !tbaa !30
  %65 = call i32 @agxset(ptr noundef %62, ptr noundef %63, ptr noundef %64)
  br label %66

66:                                               ; preds = %57, %52
  br label %67

67:                                               ; preds = %66, %43
  br label %68

68:                                               ; preds = %67, %31
  br label %69

69:                                               ; preds = %68, %21
  call void @llvm.lifetime.end.p0(i64 8, ptr %9) #14
  ret void
}