; Function Attrs: nounwind uwtable
define internal fastcc void @setGraphAttr(ptr noundef %0, ptr noundef %1, ptr noundef %2, ptr noundef readonly captures(none) %3) unnamed_addr #0 {
  %5 = load ptr, ptr @root, align 8, !tbaa !18
  %6 = icmp eq ptr %0, %5
  br i1 %6, label %7, label %15

7:                                                ; preds = %4
  %8 = tail call i32 @strcmp(ptr noundef nonnull dereferenceable(1) %1, ptr noundef nonnull dereferenceable(7) @.str.52) #27
  %.not = icmp eq i32 %8, 0
  br i1 %.not, label %9, label %15

9:                                                ; preds = %7
  %10 = tail call i32 @strcmp(ptr noundef nonnull dereferenceable(1) %2, ptr noundef nonnull dereferenceable(5) @.str.53) #27
  %.not23 = icmp eq i32 %10, 0
  br i1 %.not23, label %11, label %15

11:                                               ; preds = %9
  %12 = getelementptr inbounds nuw i8, ptr %0, i64 24
  %13 = load i8, ptr %12, align 8
  %14 = or i8 %13, 2
  store i8 %14, ptr %12, align 8
  br label %33

15:                                               ; preds = %9, %7, %4
  %16 = tail call i32 @strcmp(ptr noundef nonnull dereferenceable(1) %1, ptr noundef nonnull dereferenceable(5) @.str.28) #27
  %17 = icmp eq i32 %16, 0
  br i1 %17, label %18, label %21

18:                                               ; preds = %15
  %19 = getelementptr inbounds nuw i8, ptr %3, i64 112
  %20 = load ptr, ptr %19, align 8, !tbaa !11
  tail call fastcc void @setName(ptr noundef %20, ptr noundef %0, ptr noundef %2)
  br label %33

21:                                               ; preds = %15
  %22 = tail call ptr @agattr(ptr noundef %5, i32 noundef 0, ptr noundef nonnull %1, ptr noundef null) #24
  %.not24 = icmp eq ptr %22, null
  br i1 %.not24, label %25, label %23

23:                                               ; preds = %21
  %24 = tail call i32 @agxset(ptr noundef %0, ptr noundef nonnull %22, ptr noundef %2) #24
  br label %33

25:                                               ; preds = %21
  %26 = load ptr, ptr @root, align 8, !tbaa !18
  %27 = icmp eq ptr %0, %26
  br i1 %27, label %28, label %30

28:                                               ; preds = %25
  %29 = tail call ptr @agattr(ptr noundef %26, i32 noundef 0, ptr noundef nonnull %1, ptr noundef %2) #24
  br label %33

30:                                               ; preds = %25
  %31 = tail call ptr @agattr(ptr noundef %26, i32 noundef 0, ptr noundef nonnull %1, ptr noundef nonnull @.str.4) #24
  %32 = tail call i32 @agxset(ptr noundef %0, ptr noundef %31, ptr noundef %2) #24
  br label %33

33:                                               ; preds = %18, %28, %30, %23, %11
  ret void
}